; Function Attrs: nounwind uwtable
define i32 @SUNLinSolGetID(ptr noundef %0) local_unnamed_addr #4 {
  %2 = getelementptr inbounds nuw i8, ptr %0, i64 8
  %3 = load ptr, ptr %2, align 8, !tbaa !3
  %4 = getelementptr inbounds nuw i8, ptr %3, i64 8
  %5 = load ptr, ptr %4, align 8, !tbaa !14
  %.not = icmp eq ptr %5, null
  br i1 %.not, label %8, label %6

6:                                                ; preds = %1
  %7 = tail call i32 %5(ptr noundef nonnull %0) #7
  br label %8

8:                                                ; preds = %1, %6
  %.0 = phi i32 [ %7, %6 ], [ 17, %1 ]
  ret i32 %.0
}